Certificate:
    Data:
        Version: 3 (0x2)
        Serial Number: 3 (0x3)
    Signature Algorithm: sha256WithRSAEncryption
        Issuer: C=US, ST=NY, L=Syracuse, O=Syracuse University, OU=CIS, CN=certificate-authority
        Validity
            Not Before: Apr 25 10:49:24 2017 GMT
            Not After : Apr 25 10:49:24 2018 GMT
        Subject: C=US, ST=NY, O=Syracuse University, OU=CIS, CN=sdfs-server
        Subject Public Key Info:
            Public Key Algorithm: rsaEncryption
                Public-Key: (2048 bit)
                Modulus:
                    00:c4:40:ba:5a:54:10:e4:42:e3:2a:04:2c:5d:ff:
                    1f:ed:16:8a:3a:39:19:3a:64:07:69:e2:77:fe:bc:
                    d0:60:4b:61:09:eb:e4:17:3a:ed:cd:c8:39:10:c6:
                    6f:ef:77:95:83:1d:5e:ef:f3:6f:2e:88:62:8b:bb:
                    ac:90:af:b0:a6:90:30:9a:7d:77:08:13:90:5d:c2:
                    d7:4e:5c:95:8e:bc:5f:b5:e5:27:bc:e5:51:3a:a4:
                    e5:c9:f1:68:88:a1:07:1c:5c:8d:3c:ac:41:3b:a9:
                    7e:2b:fe:6a:b5:23:cf:9f:71:98:f7:59:58:46:02:
                    7a:b3:f5:91:67:d8:55:49:a7:00:e4:57:fc:5d:e1:
                    b5:af:ff:77:ce:45:be:19:a6:10:de:e8:15:14:6a:
                    e8:4b:5d:f6:02:80:80:11:5e:40:de:43:41:86:c9:
                    16:ce:f6:87:9b:38:ff:7e:2d:26:a1:44:37:12:c7:
                    72:24:85:13:4b:4a:09:cd:4d:db:d4:7f:c6:0b:8f:
                    b0:ac:16:a0:63:30:f9:94:bd:89:59:a4:26:87:9c:
                    30:1e:09:bd:e4:9e:a7:28:e2:75:3c:25:9e:f5:1a:
                    4e:06:75:ca:c9:9c:18:d1:b6:a5:6a:16:0d:db:3f:
                    e5:8c:b5:54:30:8f:95:48:ae:85:73:e8:9b:e9:ab:
                    6b:d3
                Exponent: 65537 (0x10001)
        X509v3 extensions:
            X509v3 Basic Constraints: 
                CA:FALSE
            Netscape Comment: 
                OpenSSL Generated Certificate
            X509v3 Subject Key Identifier: 
                23:27:B3:B1:D8:AF:28:24:24:A8:79:2B:CE:44:E3:31:69:57:92:B4
            X509v3 Authority Key Identifier: 
                keyid:1B:F2:C8:1A:B3:C5:10:8B:EB:09:D8:F7:E8:F3:B6:60:D2:66:9C:0A

    Signature Algorithm: sha256WithRSAEncryption
         dd:a1:61:b0:00:8c:71:20:06:1c:e4:ba:8d:56:bd:d6:a8:58:
         6e:99:e8:21:f0:4d:aa:f8:84:76:2d:e3:65:97:2c:da:8e:8e:
         db:ab:02:93:6a:82:00:59:fc:3b:8e:d8:85:fd:2f:e7:16:63:
         6a:77:12:f4:63:5c:b3:df:50:bc:4d:3a:46:cd:a9:18:1d:f5:
         25:88:1d:87:7c:88:a2:f4:44:0f:14:e1:d6:28:74:1d:08:a4:
         e6:ed:a5:8b:9d:65:e1:d5:d7:37:59:c6:e9:c7:44:c2:f1:9c:
         96:cf:7f:d5:77:98:ca:60:25:11:ed:cb:88:2e:ab:09:50:24:
         f7:03
-----BEGIN CERTIFICATE-----
MIIDSjCCArOgAwIBAgIBAzANBgkqhkiG9w0BAQsFADB5MQswCQYDVQQGEwJVUzEL
MAkGA1UECAwCTlkxETAPBgNVBAcMCFN5cmFjdXNlMRwwGgYDVQQKDBNTeXJhY3Vz
ZSBVbml2ZXJzaXR5MQwwCgYDVQQLDANDSVMxHjAcBgNVBAMMFWNlcnRpZmljYXRl
LWF1dGhvcml0eTAeFw0xNzA0MjUxMDQ5MjRaFw0xODA0MjUxMDQ5MjRaMFwxCzAJ
BgNVBAYTAlVTMQswCQYDVQQIDAJOWTEcMBoGA1UECgwTU3lyYWN1c2UgVW5pdmVy
c2l0eTEMMAoGA1UECwwDQ0lTMRQwEgYDVQQDDAtzZGZzLXNlcnZlcjCCASIwDQYJ
KoZIhvcNAQEBBQADggEPADCCAQoCggEBAMRAulpUEORC4yoELF3/H+0Wijo5GTpk
B2nid/680GBLYQnr5Bc67c3IORDGb+93lYMdXu/zby6IYou7rJCvsKaQMJp9dwgT
kF3C105clY68X7XlJ7zlUTqk5cnxaIihBxxcjTysQTupfiv+arUjz59xmPdZWEYC
erP1kWfYVUmnAORX/F3hta//d85FvhmmEN7oFRRq6Etd9gKAgBFeQN5DQYbJFs72
h5s4/34tJqFENxLHciSFE0tKCc1N29R/xguPsKwWoGMw+ZS9iVmkJoecMB4JveSe
pyjidTwlnvUaTgZ1ysmcGNG2pWoWDds/5Yy1VDCPlUiuhXPom+mra9MCAwEAAaN7
MHkwCQYDVR0TBAIwADAsBglghkgBhvhCAQ0EHxYdT3BlblNTTCBHZW5lcmF0ZWQg
Q2VydGlmaWNhdGUwHQYDVR0OBBYEFCMns7HYrygkJKh5K85E4zFpV5K0MB8GA1Ud
IwQYMBaAFBvyyBqzxRCL6wnY9+jztmDSZpwKMA0GCSqGSIb3DQEBCwUAA4GBAN2h
YbAAjHEgBhzkuo1WvdaoWG6Z6CHwTar4hHYt42WXLNqOjturApNqggBZ/DuO2IX9
L+cWY2p3EvRjXLPfULxNOkbNqRgd9SWIHYd8iKL0RA8U4dYodB0IpObtpYudZeHV
1zdZxunHRMLxnJbPf9V3mMpgJRHty4guqwlQJPcD
-----END CERTIFICATE-----
